; Function Attrs: nofree norecurse nosync nounwind memory(readwrite, inaccessiblemem: write) uwtable
define void @Vta_ManUnsatCoreRemap(ptr noundef readonly captures(none) %0, ptr noundef readonly captures(none) %1) local_unnamed_addr #5 {
  %3 = getelementptr i8, ptr %1, i64 4
  %.val1214 = load i32, ptr %3, align 4, !tbaa !15
  %4 = icmp sgt i32 %.val1214, 0
  br i1 %4, label %Vta_ManObj.exit.lr.ph, label %.critedge

Vta_ManObj.exit.lr.ph:                            ; preds = %2
  %5 = getelementptr i8, ptr %1, i64 8
  %.val = load ptr, ptr %5, align 8, !tbaa !3
  %6 = getelementptr inbounds nuw i8, ptr %0, i64 40
  %7 = load ptr, ptr %6, align 8, !tbaa !62
  %8 = getelementptr inbounds nuw i8, ptr %0, i64 56
  br label %Vta_ManObj.exit

Vta_ManObj.exit:                                  ; preds = %Vta_ManObj.exit.lr.ph, %Vta_ManObj.exit
  %indvars.iv = phi i64 [ 0, %Vta_ManObj.exit.lr.ph ], [ %indvars.iv.next, %Vta_ManObj.exit ]
  %9 = getelementptr inbounds nuw i32, ptr %.val, i64 %indvars.iv
  %10 = load i32, ptr %9, align 4, !tbaa !10
  %.not.i = icmp ne i32 %10, 0
  tail call void @llvm.assume(i1 %.not.i)
  %11 = sext i32 %10 to i64
  %12 = getelementptr inbounds %struct.Vta_Obj_t_, ptr %7, i64 %11
  %13 = getelementptr inbounds nuw i8, ptr %12, i64 4
  %14 = load i32, ptr %13, align 4, !tbaa !80
  %15 = load i32, ptr %8, align 8, !tbaa !83
  %16 = shl i32 %14, %15
  %17 = load i32, ptr %12, align 4, !tbaa !64
  %18 = or i32 %16, %17
  store i32 %18, ptr %9, align 4, !tbaa !10
  %indvars.iv.next = add nuw nsw i64 %indvars.iv, 1
  %.val12 = load i32, ptr %3, align 4, !tbaa !15
  %19 = sext i32 %.val12 to i64
  %20 = icmp slt i64 %indvars.iv.next, %19
  br i1 %20, label %Vta_ManObj.exit, label %.critedge, !llvm.loop !84

.critedge:                                        ; preds = %Vta_ManObj.exit, %2
  ret void
}